target datalayout = "e-m:e-p270:32:32-p271:32:32-p272:64:64-i64:64-i128:128-f80:128-n8:16:32:64-S128"
target triple = "x86_64-pc-linux-gnu"

%struct.jv = type { i8, i8, i16, i32, %union.anon }
%union.anon = type { ptr }
%struct.tm = type { i32, i32, i32, i32, i32, i32, i32, i32, i32, i64, ptr }

@.str.226 = private unnamed_addr constant [29 x i8] c"mktime requires array inputs\00", align 1
@.str.227 = private unnamed_addr constant [39 x i8] c"mktime requires parsed datetime inputs\00", align 1
@.str.228 = private unnamed_addr constant [30 x i8] c"invalid gmtime representation\00", align 1
@.str.229 = private unnamed_addr constant [38 x i8] c"mktime not supported on this platform\00", align 1

; Function Attrs: nounwind uwtable
define internal i64 @my_mktime(ptr noundef %0) #0 {
  %2 = alloca ptr, align 8
  store ptr %0, ptr %2, align 8, !tbaa !84
  %3 = load ptr, ptr %2, align 8, !tbaa !84
  %4 = call i64 @timegm(ptr noundef %3) #10
  ret i64 %4
}

; Function Attrs: inlinehint nounwind uwtable
define internal { i64, ptr } @ret_error(i64 %0, ptr %1, i64 %2, ptr %3) #7 {
  %5 = alloca %struct.jv, align 8
  %6 = alloca %struct.jv, align 8
  %7 = alloca %struct.jv, align 8
  %8 = getelementptr inbounds nuw { i64, ptr }, ptr %6, i32 0, i32 0
  store i64 %0, ptr %8, align 8
  %9 = getelementptr inbounds nuw { i64, ptr }, ptr %6, i32 0, i32 1
  store ptr %1, ptr %9, align 8
  %10 = getelementptr inbounds nuw { i64, ptr }, ptr %7, i32 0, i32 0
  store i64 %2, ptr %10, align 8
  %11 = getelementptr inbounds nuw { i64, ptr }, ptr %7, i32 0, i32 1
  store ptr %3, ptr %11, align 8
  %12 = getelementptr inbounds nuw { i64, ptr }, ptr %6, i32 0, i32 0
  %13 = load i64, ptr %12, align 8
  %14 = getelementptr inbounds nuw { i64, ptr }, ptr %6, i32 0, i32 1
  %15 = load ptr, ptr %14, align 8
  call void @jv_free(i64 %13, ptr %15)
  %16 = getelementptr inbounds nuw { i64, ptr }, ptr %7, i32 0, i32 0
  %17 = load i64, ptr %16, align 8
  %18 = getelementptr inbounds nuw { i64, ptr }, ptr %7, i32 0, i32 1
  %19 = load ptr, ptr %18, align 8
  %20 = call { i64, ptr } @jv_invalid_with_msg(i64 %17, ptr %19)
  %21 = getelementptr inbounds nuw { i64, ptr }, ptr %5, i32 0, i32 0
  %22 = extractvalue { i64, ptr } %20, 0
  store i64 %22, ptr %21, align 8
  %23 = getelementptr inbounds nuw { i64, ptr }, ptr %5, i32 0, i32 1
  %24 = extractvalue { i64, ptr } %20, 1
  store ptr %24, ptr %23, align 8
  %25 = load { i64, ptr }, ptr %5, align 8
  ret { i64, ptr } %25
}

; Function Attrs: nounwind uwtable
define internal { i64, ptr } @f_mktime(ptr noundef %0, i64 %1, ptr %2) #0 {
  %4 = alloca %struct.jv, align 8
  %5 = alloca %struct.jv, align 8
  %6 = alloca ptr, align 8
  %7 = alloca %struct.jv, align 8
  %8 = alloca %struct.tm, align 8
  %9 = alloca %struct.jv, align 8
  %10 = alloca i32, align 4
  %11 = alloca i64, align 8
  %12 = alloca %struct.jv, align 8
  %13 = alloca %struct.jv, align 8
  %14 = getelementptr inbounds nuw { i64, ptr }, ptr %5, i32 0, i32 0
  store i64 %1, ptr %14, align 8
  %15 = getelementptr inbounds nuw { i64, ptr }, ptr %5, i32 0, i32 1
  store ptr %2, ptr %15, align 8
  store ptr %0, ptr %6, align 8, !tbaa !25
  %16 = getelementptr inbounds nuw { i64, ptr }, ptr %5, i32 0, i32 0
  %17 = load i64, ptr %16, align 8
  %18 = getelementptr inbounds nuw { i64, ptr }, ptr %5, i32 0, i32 1
  %19 = load ptr, ptr %18, align 8
  %20 = call i32 @jv_get_kind(i64 %17, ptr %19)
  %21 = icmp ne i32 %20, 6
  br i1 %21, label %22, label %41

22:                                               ; preds = %3
  %23 = call { i64, ptr } @jv_string(ptr noundef @.str.226)
  %24 = getelementptr inbounds nuw { i64, ptr }, ptr %7, i32 0, i32 0
  %25 = extractvalue { i64, ptr } %23, 0
  store i64 %25, ptr %24, align 8
  %26 = getelementptr inbounds nuw { i64, ptr }, ptr %7, i32 0, i32 1
  %27 = extractvalue { i64, ptr } %23, 1
  store ptr %27, ptr %26, align 8
  %28 = getelementptr inbounds nuw { i64, ptr }, ptr %5, i32 0, i32 0
  %29 = load i64, ptr %28, align 8
  %30 = getelementptr inbounds nuw { i64, ptr }, ptr %5, i32 0, i32 1
  %31 = load ptr, ptr %30, align 8
  %32 = getelementptr inbounds nuw { i64, ptr }, ptr %7, i32 0, i32 0
  %33 = load i64, ptr %32, align 8
  %34 = getelementptr inbounds nuw { i64, ptr }, ptr %7, i32 0, i32 1
  %35 = load ptr, ptr %34, align 8
  %36 = call { i64, ptr } @ret_error(i64 %29, ptr %31, i64 %33, ptr %35)
  %37 = getelementptr inbounds nuw { i64, ptr }, ptr %4, i32 0, i32 0
  %38 = extractvalue { i64, ptr } %36, 0
  store i64 %38, ptr %37, align 8
  %39 = getelementptr inbounds nuw { i64, ptr }, ptr %4, i32 0, i32 1
  %40 = extractvalue { i64, ptr } %36, 1
  store ptr %40, ptr %39, align 8
  br label %110

41:                                               ; preds = %3
  call void @llvm.lifetime.start.p0(i64 56, ptr %8) #10
  %42 = getelementptr inbounds nuw { i64, ptr }, ptr %5, i32 0, i32 0
  %43 = load i64, ptr %42, align 8
  %44 = getelementptr inbounds nuw { i64, ptr }, ptr %5, i32 0, i32 1
  %45 = load ptr, ptr %44, align 8
  %46 = call i32 @jv2tm(i64 %43, ptr %45, ptr noundef %8)
  %47 = icmp ne i32 %46, 0
  br i1 %47, label %63, label %48

48:                                               ; preds = %41
  %49 = call { i64, ptr } @jv_string(ptr noundef @.str.227)
  %50 = getelementptr inbounds nuw { i64, ptr }, ptr %9, i32 0, i32 0
  %51 = extractvalue { i64, ptr } %49, 0
  store i64 %51, ptr %50, align 8
  %52 = getelementptr inbounds nuw { i64, ptr }, ptr %9, i32 0, i32 1
  %53 = extractvalue { i64, ptr } %49, 1
  store ptr %53, ptr %52, align 8
  %54 = getelementptr inbounds nuw { i64, ptr }, ptr %9, i32 0, i32 0
  %55 = load i64, ptr %54, align 8
  %56 = getelementptr inbounds nuw { i64, ptr }, ptr %9, i32 0, i32 1
  %57 = load ptr, ptr %56, align 8
  %58 = call { i64, ptr } @jv_invalid_with_msg(i64 %55, ptr %57)
  %59 = getelementptr inbounds nuw { i64, ptr }, ptr %4, i32 0, i32 0
  %60 = extractvalue { i64, ptr } %58, 0
  store i64 %60, ptr %59, align 8
  %61 = getelementptr inbounds nuw { i64, ptr }, ptr %4, i32 0, i32 1
  %62 = extractvalue { i64, ptr } %58, 1
  store ptr %62, ptr %61, align 8
  store i32 1, ptr %10, align 4
  br label %109

63:                                               ; preds = %41
  call void @llvm.lifetime.start.p0(i64 8, ptr %11) #10
  %64 = call i64 @my_mktime(ptr noundef %8)
  store i64 %64, ptr %11, align 8, !tbaa !22
  %65 = load i64, ptr %11, align 8, !tbaa !22
  %66 = icmp eq i64 %65, -1
  br i1 %66, label %67, label %82

67:                                               ; preds = %63
  %68 = call { i64, ptr } @jv_string(ptr noundef @.str.228)
  %69 = getelementptr inbounds nuw { i64, ptr }, ptr %12, i32 0, i32 0
  %70 = extractvalue { i64, ptr } %68, 0
  store i64 %70, ptr %69, align 8
  %71 = getelementptr inbounds nuw { i64, ptr }, ptr %12, i32 0, i32 1
  %72 = extractvalue { i64, ptr } %68, 1
  store ptr %72, ptr %71, align 8
  %73 = getelementptr inbounds nuw { i64, ptr }, ptr %12, i32 0, i32 0
  %74 = load i64, ptr %73, align 8
  %75 = getelementptr inbounds nuw { i64, ptr }, ptr %12, i32 0, i32 1
  %76 = load ptr, ptr %75, align 8
  %77 = call { i64, ptr } @jv_invalid_with_msg(i64 %74, ptr %76)
  %78 = getelementptr inbounds nuw { i64, ptr }, ptr %4, i32 0, i32 0
  %79 = extractvalue { i64, ptr } %77, 0
  store i64 %79, ptr %78, align 8
  %80 = getelementptr inbounds nuw { i64, ptr }, ptr %4, i32 0, i32 1
  %81 = extractvalue { i64, ptr } %77, 1
  store ptr %81, ptr %80, align 8
  store i32 1, ptr %10, align 4
  br label %108

82:                                               ; preds = %63
  %83 = load i64, ptr %11, align 8, !tbaa !22
  %84 = icmp eq i64 %83, -2
  br i1 %84, label %85, label %100

85:                                               ; preds = %82
  %86 = call { i64, ptr } @jv_string(ptr noundef @.str.229)
  %87 = getelementptr inbounds nuw { i64, ptr }, ptr %13, i32 0, i32 0
  %88 = extractvalue { i64, ptr } %86, 0
  store i64 %88, ptr %87, align 8
  %89 = getelementptr inbounds nuw { i64, ptr }, ptr %13, i32 0, i32 1
  %90 = extractvalue { i64, ptr } %86, 1
  store ptr %90, ptr %89, align 8
  %91 = getelementptr inbounds nuw { i64, ptr }, ptr %13, i32 0, i32 0
  %92 = load i64, ptr %91, align 8
  %93 = getelementptr inbounds nuw { i64, ptr }, ptr %13, i32 0, i32 1
  %94 = load ptr, ptr %93, align 8
  %95 = call { i64, ptr } @jv_invalid_with_msg(i64 %92, ptr %94)
  %96 = getelementptr inbounds nuw { i64, ptr }, ptr %4, i32 0, i32 0
  %97 = extractvalue { i64, ptr } %95, 0
  store i64 %97, ptr %96, align 8
  %98 = getelementptr inbounds nuw { i64, ptr }, ptr %4, i32 0, i32 1
  %99 = extractvalue { i64, ptr } %95, 1
  store ptr %99, ptr %98, align 8
  store i32 1, ptr %10, align 4
  br label %108

100:                                              ; preds = %82
  %101 = load i64, ptr %11, align 8, !tbaa !22
  %102 = sitofp i64 %101 to double
  %103 = call { i64, ptr } @jv_number(double noundef %102)
  %104 = getelementptr inbounds nuw { i64, ptr }, ptr %4, i32 0, i32 0
  %105 = extractvalue { i64, ptr } %103, 0
  store i64 %105, ptr %104, align 8
  %106 = getelementptr inbounds nuw { i64, ptr }, ptr %4, i32 0, i32 1
  %107 = extractvalue { i64, ptr } %103, 1
  store ptr %107, ptr %106, align 8
  store i32 1, ptr %10, align 4
  br label %108

108:                                              ; preds = %100, %85, %67
  call void @llvm.lifetime.end.p0(i64 8, ptr %11) #10
  br label %109

109:                                              ; preds = %108, %48
  call void @llvm.lifetime.end.p0(i64 56, ptr %8) #10
  br label %110

110:                                              ; preds = %109, %22
  %111 = load { i64, ptr }, ptr %4, align 8
  ret { i64, ptr } %111
}