; Function Attrs: nounwind uwtable
define internal { i64, ptr } @f_mktime(ptr readnone captures(none) %0, i64 %1, ptr %2) #0 {
  %4 = alloca %struct.tm, align 8
  %5 = tail call i32 @jv_get_kind(i64 %1, ptr %2) #14
  %.not = icmp eq i32 %5, 6
  br i1 %.not, label %11, label %6

6:                                                ; preds = %3
  %7 = tail call { i64, ptr } @jv_string(ptr noundef nonnull @.str.226) #14
  %8 = extractvalue { i64, ptr } %7, 0
  %9 = extractvalue { i64, ptr } %7, 1
  tail call void @jv_free(i64 %1, ptr %2) #14
  %10 = tail call { i64, ptr } @jv_invalid_with_msg(i64 %8, ptr %9) #14
  br label %34

11:                                               ; preds = %3
  call void @llvm.lifetime.start.p0(i64 56, ptr nonnull %4) #14
  %12 = call fastcc i32 @jv2tm(i64 %1, ptr %2, ptr noundef %4)
  %.not15 = icmp eq i32 %12, 0
  br i1 %.not15, label %13, label %18

13:                                               ; preds = %11
  %14 = tail call { i64, ptr } @jv_string(ptr noundef nonnull @.str.227) #14
  %15 = extractvalue { i64, ptr } %14, 0
  %16 = extractvalue { i64, ptr } %14, 1
  %17 = tail call { i64, ptr } @jv_invalid_with_msg(i64 %15, ptr %16) #14
  br label %33

18:                                               ; preds = %11
  %19 = call i64 @timegm(ptr noundef nonnull %4) #14
  switch i64 %19, label %30 [
    i64 -1, label %20
    i64 -2, label %25
  ]

20:                                               ; preds = %18
  %21 = call { i64, ptr } @jv_string(ptr noundef nonnull @.str.228) #14
  %22 = extractvalue { i64, ptr } %21, 0
  %23 = extractvalue { i64, ptr } %21, 1
  %24 = call { i64, ptr } @jv_invalid_with_msg(i64 %22, ptr %23) #14
  br label %33

25:                                               ; preds = %18
  %26 = call { i64, ptr } @jv_string(ptr noundef nonnull @.str.229) #14
  %27 = extractvalue { i64, ptr } %26, 0
  %28 = extractvalue { i64, ptr } %26, 1
  %29 = call { i64, ptr } @jv_invalid_with_msg(i64 %27, ptr %28) #14
  br label %33

30:                                               ; preds = %18
  %31 = sitofp i64 %19 to double
  %32 = call { i64, ptr } @jv_number(double noundef %31) #14
  br label %33

33:                                               ; preds = %20, %25, %30, %13
  %.pn.pn = phi { i64, ptr } [ %17, %13 ], [ %24, %20 ], [ %29, %25 ], [ %32, %30 ]
  call void @llvm.lifetime.end.p0(i64 56, ptr nonnull %4) #14
  br label %34

34:                                               ; preds = %33, %6
  %.pn18 = phi { i64, ptr } [ %10, %6 ], [ %.pn.pn, %33 ]
  ret { i64, ptr } %.pn18
}